Certificate:
    Data:
        Version: 3 (0x2)
        Serial Number: 1 (0x1)
        Signature Algorithm: sha256WithRSAEncryption
        Issuer: C=IT, ST=Campania, L=Napoli, O=Asl, OU=Asl Campania CA, CN=Asl Campania CA
        Validity
            Not Before: Jun 25 15:23:36 2020 GMT
            Not After : Jun 25 15:23:36 2021 GMT
        Subject: C=IT, ST=Campania, O=Asl, OU=Asl Campania Contact Server, CN=Asl Campania Contact Server
        Subject Public Key Info:
            Public Key Algorithm: rsaEncryption
                RSA Public-Key: (2048 bit)
                Modulus:
                    00:d5:92:7a:cf:e0:e7:39:2e:61:50:b0:c3:9b:75:
                    74:db:81:ff:86:ba:2c:65:d0:ae:ae:54:9a:f5:82:
                    ef:28:3f:3d:c4:43:7d:77:0f:5c:7c:25:41:8e:c7:
                    5c:25:a2:26:18:3f:4e:14:ee:45:3d:c1:50:2a:11:
                    9b:6f:11:7b:c2:c2:8c:55:1f:77:80:2f:8b:2b:1a:
                    2a:64:43:56:b0:ce:16:0c:47:5c:b7:43:af:93:47:
                    ca:12:7c:60:0a:d0:e1:26:ca:36:c1:f4:44:45:5f:
                    ce:1b:86:46:3a:9d:a0:b7:f3:f3:16:4c:fa:8d:5f:
                    5b:6f:3f:14:32:00:eb:18:0d:92:d6:ef:23:37:62:
                    5f:39:db:4a:99:f3:be:ad:37:42:03:87:39:2a:aa:
                    da:87:02:c5:29:d5:9d:38:38:36:46:15:36:e2:64:
                    2e:89:81:0b:80:e9:dd:0a:3f:6f:65:04:8c:22:57:
                    a9:c3:cd:c2:d8:31:82:fb:07:be:ff:17:b1:d0:91:
                    18:55:6b:eb:37:0d:dc:a2:29:f1:7f:68:d9:66:6b:
                    f8:5a:bd:55:a0:c5:1f:74:d4:ce:5f:f0:1a:69:e6:
                    f2:89:fc:0f:0f:1d:c3:71:83:31:2e:52:44:e3:e4:
                    0f:30:14:dc:34:f1:40:a0:5f:27:c9:7a:46:7b:41:
                    de:4f
                Exponent: 65537 (0x10001)
        X509v3 extensions:
            X509v3 Basic Constraints: 
                CA:FALSE
            Netscape Comment: 
                OpenSSL Generated Certificate
            X509v3 Subject Key Identifier: 
                A9:3F:7A:5B:36:E4:97:CD:5A:EE:F6:86:96:A9:E4:0F:E0:55:7C:CA
            X509v3 Authority Key Identifier: 
                keyid:F8:18:A5:21:9A:5E:F0:60:49:2E:75:84:4E:42:98:BC:68:5E:46:69

    Signature Algorithm: sha256WithRSAEncryption
         ce:ae:c8:b5:bc:ce:de:da:ea:03:6c:0c:cf:a0:93:6f:17:e6:
         ef:a2:7c:4b:f1:98:26:7b:51:c3:2a:bb:a5:c8:55:b4:55:74:
         73:59:03:ea:b9:6c:32:08:97:71:a9:be:d7:99:00:31:62:1d:
         7b:54:f6:cc:1d:f3:70:43:10:6a:e8:98:fc:60:fc:8f:74:9a:
         a9:ee:e6:eb:ac:84:ca:2c:5c:c9:1d:65:f7:3f:5d:f2:90:2b:
         51:2b:33:b7:c8:a6:e5:87:ea:b1:cb:15:6e:1e:42:b9:d9:af:
         a5:11:e5:66:84:93:0c:be:0b:e1:4b:1c:dd:0b:50:55:45:ea:
         f8:d1:f8:7d:c2:20:59:56:48:5b:63:0d:e5:63:e4:0c:6c:eb:
         98:d4:cb:1c:84:12:8c:08:4d:94:06:8b:c7:78:03:82:b4:bd:
         48:19:dc:99:92:95:6a:63:45:14:13:9f:cb:ee:7e:e6:56:7b:
         af:81:58:c6:1a:71:45:e5:9e:84:1f:7d:3d:6b:82:12:b4:c2:
         8a:68:83:da:1c:97:e7:f4:9c:7b:a6:f2:05:ae:25:38:44:4c:
         d8:9b:ca:f4:13:e7:72:2e:78:d0:4b:5e:38:85:15:c5:d8:94:
         cb:9a:03:d5:8f:bd:f4:28:58:83:43:a4:b5:f1:0e:3f:61:9c:
         7b:6f:9b:97
-----BEGIN CERTIFICATE-----
MIID4zCCAsugAwIBAgIBATANBgkqhkiG9w0BAQsFADBzMQswCQYDVQQGEwJJVDER
MA8GA1UECAwIQ2FtcGFuaWExDzANBgNVBAcMBk5hcG9saTEMMAoGA1UECgwDQXNs
MRgwFgYDVQQLDA9Bc2wgQ2FtcGFuaWEgQ0ExGDAWBgNVBAMMD0FzbCBDYW1wYW5p
YSBDQTAeFw0yMDA2MjUxNTIzMzZaFw0yMTA2MjUxNTIzMzZaMHoxCzAJBgNVBAYT
AklUMREwDwYDVQQIDAhDYW1wYW5pYTEMMAoGA1UECgwDQXNsMSQwIgYDVQQLDBtB
c2wgQ2FtcGFuaWEgQ29udGFjdCBTZXJ2ZXIxJDAiBgNVBAMMG0FzbCBDYW1wYW5p
YSBDb250YWN0IFNlcnZlcjCCASIwDQYJKoZIhvcNAQEBBQADggEPADCCAQoCggEB
ANWSes/g5zkuYVCww5t1dNuB/4a6LGXQrq5UmvWC7yg/PcRDfXcPXHwlQY7HXCWi
Jhg/ThTuRT3BUCoRm28Re8LCjFUfd4AviysaKmRDVrDOFgxHXLdDr5NHyhJ8YArQ
4SbKNsH0REVfzhuGRjqdoLfz8xZM+o1fW28/FDIA6xgNktbvIzdiXznbSpnzvq03
QgOHOSqq2ocCxSnVnTg4NkYVNuJkLomBC4Dp3Qo/b2UEjCJXqcPNwtgxgvsHvv8X
sdCRGFVr6zcN3KIp8X9o2WZr+Fq9VaDFH3TUzl/wGmnm8on8Dw8dw3GDMS5SROPk
DzAU3DTxQKBfJ8l6RntB3k8CAwEAAaN7MHkwCQYDVR0TBAIwADAsBglghkgBhvhC
AQ0EHxYdT3BlblNTTCBHZW5lcmF0ZWQgQ2VydGlmaWNhdGUwHQYDVR0OBBYEFKk/
els25JfNWu72hpap5A/gVXzKMB8GA1UdIwQYMBaAFPgYpSGaXvBgSS51hE5CmLxo
XkZpMA0GCSqGSIb3DQEBCwUAA4IBAQDOrsi1vM7e2uoDbAzPoJNvF+bvonxL8Zgm
e1HDKrulyFW0VXRzWQPquWwyCJdxqb7XmQAxYh17VPbMHfNwQxBq6Jj8YPyPdJqp
7ubrrITKLFzJHWX3P13ykCtRKzO3yKblh+qxyxVuHkK52a+lEeVmhJMMvgvhSxzd
C1BVRer40fh9wiBZVkhbYw3lY+QMbOuY1MschBKMCE2UBovHeAOCtL1IGdyZkpVq
Y0UUE5/L7n7mVnuvgVjGGnFF5Z6EH309a4IStMKKaIPaHJfn9Jx7pvIFriU4REzY
m8r0E+dyLnjQS144hRXF2JTLmgPVj730KFiDQ6S18Q4/YZx7b5uX
-----END CERTIFICATE-----
