Certificate:
    Data:
        Version: 3 (0x2)
        Serial Number: 2 (0x2)
        Signature Algorithm: sha256WithRSAEncryption
        Issuer: C=IT, ST=Campania, L=Napoli, O=Asl, OU=Asl Campania CA, CN=Asl Campania CA
        Validity
            Not Before: Jun 25 15:27:50 2020 GMT
            Not After : Jun 25 15:27:50 2021 GMT
        Subject: C=IT, ST=Campania, O=Asl, OU=Asl Campania Medical Center, CN=Asl Campania Medical Center 1
        Subject Public Key Info:
            Public Key Algorithm: rsaEncryption
                RSA Public-Key: (2048 bit)
                Modulus:
                    00:b4:af:fc:90:a5:77:16:2f:94:a4:4c:70:d9:48:
                    11:7c:2a:0e:46:a9:a9:d3:b4:14:76:1d:fa:fa:d3:
                    ee:26:1a:a5:3c:d0:af:38:54:d6:ac:f7:89:f4:a0:
                    b7:bc:6d:44:13:fc:b4:24:4e:32:32:93:8a:6b:23:
                    bd:e1:03:ef:97:fa:ae:93:63:1d:15:c2:df:a0:82:
                    20:67:23:7f:68:d1:94:fc:1b:51:18:ce:66:38:ef:
                    19:d5:ec:c1:89:96:b7:8b:c1:ac:4e:81:e4:11:23:
                    36:2a:53:41:5f:cb:9b:30:7a:ff:23:0d:1b:c9:37:
                    67:d8:13:62:af:d0:3c:9d:c9:a6:62:66:43:75:49:
                    1f:61:30:9f:14:6a:4a:1c:91:22:2a:76:a7:a5:4e:
                    24:65:6b:a6:44:c3:68:7b:d4:9e:94:79:4c:a2:00:
                    6c:37:87:cc:9a:7d:c7:6a:05:24:26:df:6d:f4:c7:
                    67:c9:16:c3:3c:ba:cd:fc:48:5d:1c:de:3a:1f:53:
                    da:fe:b1:e2:11:e8:21:06:9e:4c:e9:8c:a3:1c:0b:
                    24:e1:1e:5d:7e:8c:f3:05:d1:db:b4:4d:b3:c0:2b:
                    63:ec:69:fc:53:b4:b4:4e:82:3c:9b:13:6a:fb:24:
                    55:46:81:93:7b:e0:40:2b:fa:e9:2c:cb:64:8a:3b:
                    2a:11
                Exponent: 65537 (0x10001)
        X509v3 extensions:
            X509v3 Basic Constraints: 
                CA:FALSE
            Netscape Comment: 
                OpenSSL Generated Certificate
            X509v3 Subject Key Identifier: 
                11:2C:87:2E:F2:CF:FA:6F:E1:AD:C4:EC:AA:E2:2A:E3:23:7B:AA:81
            X509v3 Authority Key Identifier: 
                keyid:F8:18:A5:21:9A:5E:F0:60:49:2E:75:84:4E:42:98:BC:68:5E:46:69

    Signature Algorithm: sha256WithRSAEncryption
         af:ef:56:31:79:37:72:1d:b3:6c:74:1f:9f:20:ef:69:e4:16:
         d6:b6:90:fa:b9:89:d6:9b:e2:30:ab:96:69:bf:41:e4:8a:2d:
         1e:76:a1:bc:e0:d1:cb:84:75:c5:bc:26:21:4d:bd:11:4c:99:
         2b:6b:7c:83:f8:98:8f:bb:0f:3e:da:5c:0c:ac:fa:92:9c:0c:
         3e:42:50:fd:4a:51:ed:19:87:53:8d:b6:17:fe:52:84:d6:a8:
         aa:4b:b3:ac:bd:b1:eb:44:b3:4d:9f:42:62:62:09:fe:37:0a:
         90:1c:08:a2:cc:32:59:b6:bd:88:ff:05:51:1d:84:05:2b:4f:
         fb:cf:de:fe:97:39:03:42:97:e7:49:26:f2:99:31:a3:e9:6e:
         eb:a9:f7:9f:3f:72:3a:5b:3f:d2:d4:80:5c:6e:2b:f9:e7:e3:
         76:a4:c0:6d:03:22:41:3f:ee:eb:69:83:e2:03:14:bf:15:a0:
         07:c0:75:1c:20:58:e5:67:4d:fe:67:1f:57:eb:09:08:ee:fe:
         fd:18:b9:e7:bb:61:46:c2:d7:2d:a3:fe:06:44:ee:7c:fe:2d:
         fb:b6:e6:18:60:77:6e:9f:fb:e6:6a:92:6d:75:19:13:95:a9:
         67:1a:4e:1f:6d:1d:a2:40:1b:8b:94:45:13:a0:f2:11:1b:bc:
         db:36:71:f9
-----BEGIN CERTIFICATE-----
MIID5TCCAs2gAwIBAgIBAjANBgkqhkiG9w0BAQsFADBzMQswCQYDVQQGEwJJVDER
MA8GA1UECAwIQ2FtcGFuaWExDzANBgNVBAcMBk5hcG9saTEMMAoGA1UECgwDQXNs
MRgwFgYDVQQLDA9Bc2wgQ2FtcGFuaWEgQ0ExGDAWBgNVBAMMD0FzbCBDYW1wYW5p
YSBDQTAeFw0yMDA2MjUxNTI3NTBaFw0yMTA2MjUxNTI3NTBaMHwxCzAJBgNVBAYT
AklUMREwDwYDVQQIDAhDYW1wYW5pYTEMMAoGA1UECgwDQXNsMSQwIgYDVQQLDBtB
c2wgQ2FtcGFuaWEgTWVkaWNhbCBDZW50ZXIxJjAkBgNVBAMMHUFzbCBDYW1wYW5p
YSBNZWRpY2FsIENlbnRlciAxMIIBIjANBgkqhkiG9w0BAQEFAAOCAQ8AMIIBCgKC
AQEAtK/8kKV3Fi+UpExw2UgRfCoORqmp07QUdh36+tPuJhqlPNCvOFTWrPeJ9KC3
vG1EE/y0JE4yMpOKayO94QPvl/quk2MdFcLfoIIgZyN/aNGU/BtRGM5mOO8Z1ezB
iZa3i8GsToHkESM2KlNBX8ubMHr/Iw0byTdn2BNir9A8ncmmYmZDdUkfYTCfFGpK
HJEiKnanpU4kZWumRMNoe9SelHlMogBsN4fMmn3HagUkJt9t9MdnyRbDPLrN/Ehd
HN46H1Pa/rHiEeghBp5M6YyjHAsk4R5dfozzBdHbtE2zwCtj7Gn8U7S0ToI8mxNq
+yRVRoGTe+BAK/rpLMtkijsqEQIDAQABo3sweTAJBgNVHRMEAjAAMCwGCWCGSAGG
+EIBDQQfFh1PcGVuU1NMIEdlbmVyYXRlZCBDZXJ0aWZpY2F0ZTAdBgNVHQ4EFgQU
ESyHLvLP+m/hrcTsquIq4yN7qoEwHwYDVR0jBBgwFoAU+BilIZpe8GBJLnWETkKY
vGheRmkwDQYJKoZIhvcNAQELBQADggEBAK/vVjF5N3Ids2x0H58g72nkFta2kPq5
idab4jCrlmm/QeSKLR52obzg0cuEdcW8JiFNvRFMmStrfIP4mI+7Dz7aXAys+pKc
DD5CUP1KUe0Zh1ONthf+UoTWqKpLs6y9setEs02fQmJiCf43CpAcCKLMMlm2vYj/
BVEdhAUrT/vP3v6XOQNCl+dJJvKZMaPpbuup958/cjpbP9LUgFxuK/nn43akwG0D
IkE/7utpg+IDFL8VoAfAdRwgWOVnTf5nH1frCQju/v0Yuee7YUbC1y2j/gZE7nz+
Lfu25hhgd26f++Zqkm11GROVqWcaTh9tHaJAG4uURROg8hEbvNs2cfk=
-----END CERTIFICATE-----
