Certificate:
    Data:
        Version: 3 (0x2)
        Serial Number: 3 (0x3)
        Signature Algorithm: sha256WithRSAEncryption
        Issuer: C=IT, ST=Campania, L=Napoli, O=Asl, OU=Asl Campania CA, CN=Asl Campania CA
        Validity
            Not Before: Jun 28 10:14:27 2020 GMT
            Not After : Jun 28 10:14:27 2021 GMT
        Subject: C=IT, ST=Campania, O=Asl, OU=Asl Campania User, CN=Asl Campania User
        Subject Public Key Info:
            Public Key Algorithm: rsaEncryption
                RSA Public-Key: (2048 bit)
                Modulus:
                    00:a1:30:c6:5e:e9:f5:c5:46:e5:77:9c:53:68:45:
                    74:48:4b:75:76:97:b5:91:3b:f2:72:84:2b:b3:a0:
                    7e:4c:b6:ea:a6:04:49:77:ab:4b:2a:9c:cb:a4:f6:
                    8a:ad:68:4c:6a:2b:7d:46:01:32:74:62:9d:a5:e3:
                    56:41:28:64:e4:2e:46:ff:39:dc:e4:d8:f9:d8:a1:
                    20:1f:45:de:c8:f5:9b:2c:82:c1:5e:43:a1:d4:64:
                    56:0e:ba:cf:88:bd:c8:b3:2c:64:bd:25:2a:fc:cc:
                    1a:b1:f9:44:e7:83:b2:f2:44:26:27:24:87:38:c0:
                    8a:3e:46:32:c0:9e:94:e5:4b:01:a1:b1:f9:4c:4f:
                    ec:06:1c:fa:49:bf:35:93:35:9e:e2:c7:4e:58:e9:
                    92:88:55:81:59:79:96:50:2c:01:8f:9b:50:d7:30:
                    55:22:93:6c:b9:3a:ce:4f:8c:ee:6e:a6:d9:9d:26:
                    4f:4a:a5:2d:82:80:b4:d3:c4:69:e3:31:36:2f:f2:
                    ba:65:36:4a:35:70:38:7b:c9:fc:07:12:67:bf:13:
                    80:2d:c1:51:2b:e2:f4:7b:02:9d:e7:87:ed:cc:70:
                    6e:f3:4e:5e:0a:67:0e:04:21:8f:7e:c3:11:99:d2:
                    83:33:bd:1d:f4:49:f5:9b:ef:51:ae:1d:05:9d:7e:
                    c3:a1
                Exponent: 65537 (0x10001)
        X509v3 extensions:
            X509v3 Basic Constraints: 
                CA:FALSE
            Netscape Comment: 
                OpenSSL Generated Certificate
            X509v3 Subject Key Identifier: 
                07:37:B3:1A:83:B5:C9:DE:22:54:90:BC:5C:C8:8C:38:1B:90:76:CB
            X509v3 Authority Key Identifier: 
                keyid:F8:18:A5:21:9A:5E:F0:60:49:2E:75:84:4E:42:98:BC:68:5E:46:69

    Signature Algorithm: sha256WithRSAEncryption
         30:56:00:64:5f:10:d5:73:eb:e2:66:15:71:85:bb:d0:4f:7d:
         fc:31:6e:1f:b5:bd:d5:29:d5:d8:9e:57:77:35:9e:fc:50:b8:
         ee:e0:bf:2c:b0:47:dd:d6:0d:a7:e8:1d:32:3d:73:b7:b0:65:
         cf:36:f9:9d:ea:7a:cc:97:1a:65:72:f7:76:ea:d0:6a:65:55:
         f7:46:a9:44:6e:16:9f:2b:2d:66:b5:40:98:f1:ce:09:72:8d:
         14:fb:69:3b:31:88:2f:f8:74:c1:22:62:1f:12:88:85:b2:05:
         ab:48:5f:d9:2a:e1:9e:65:d4:72:c0:3e:ee:24:e3:26:98:48:
         e1:9a:ee:d2:f0:37:b9:1d:1b:79:96:2e:49:e5:1b:0c:2c:ff:
         ca:e8:78:85:da:74:34:fa:e8:92:78:ec:d2:24:44:78:b6:70:
         03:1d:99:38:2d:0c:13:ff:31:e9:ba:26:a9:05:8f:f0:eb:80:
         b9:2d:c3:3e:fe:ab:b8:aa:bf:b9:40:de:91:ec:58:f1:8b:70:
         a3:3a:9e:d7:5a:8d:61:c9:72:6e:68:64:92:f4:3a:05:00:78:
         01:40:3b:a4:08:72:3b:21:f1:dd:3d:16:59:d2:9e:39:44:20:
         8b:6e:71:7d:80:88:64:0f:87:4c:c6:15:87:40:88:7e:5c:c6:
         5f:8b:5a:b5
-----BEGIN CERTIFICATE-----
MIIDzzCCAregAwIBAgIBAzANBgkqhkiG9w0BAQsFADBzMQswCQYDVQQGEwJJVDER
MA8GA1UECAwIQ2FtcGFuaWExDzANBgNVBAcMBk5hcG9saTEMMAoGA1UECgwDQXNs
MRgwFgYDVQQLDA9Bc2wgQ2FtcGFuaWEgQ0ExGDAWBgNVBAMMD0FzbCBDYW1wYW5p
YSBDQTAeFw0yMDA2MjgxMDE0MjdaFw0yMTA2MjgxMDE0MjdaMGYxCzAJBgNVBAYT
AklUMREwDwYDVQQIDAhDYW1wYW5pYTEMMAoGA1UECgwDQXNsMRowGAYDVQQLDBFB
c2wgQ2FtcGFuaWEgVXNlcjEaMBgGA1UEAwwRQXNsIENhbXBhbmlhIFVzZXIwggEi
MA0GCSqGSIb3DQEBAQUAA4IBDwAwggEKAoIBAQChMMZe6fXFRuV3nFNoRXRIS3V2
l7WRO/JyhCuzoH5MtuqmBEl3q0sqnMuk9oqtaExqK31GATJ0Yp2l41ZBKGTkLkb/
Odzk2PnYoSAfRd7I9ZssgsFeQ6HUZFYOus+IvcizLGS9JSr8zBqx+UTng7LyRCYn
JIc4wIo+RjLAnpTlSwGhsflMT+wGHPpJvzWTNZ7ix05Y6ZKIVYFZeZZQLAGPm1DX
MFUik2y5Os5PjO5uptmdJk9KpS2CgLTTxGnjMTYv8rplNko1cDh7yfwHEme/E4At
wVEr4vR7Ap3nh+3McG7zTl4KZw4EIY9+wxGZ0oMzvR30SfWb71GuHQWdfsOhAgMB
AAGjezB5MAkGA1UdEwQCMAAwLAYJYIZIAYb4QgENBB8WHU9wZW5TU0wgR2VuZXJh
dGVkIENlcnRpZmljYXRlMB0GA1UdDgQWBBQHN7Mag7XJ3iJUkLxcyIw4G5B2yzAf
BgNVHSMEGDAWgBT4GKUhml7wYEkudYROQpi8aF5GaTANBgkqhkiG9w0BAQsFAAOC
AQEAMFYAZF8Q1XPr4mYVcYW70E99/DFuH7W91SnV2J5XdzWe/FC47uC/LLBH3dYN
p+gdMj1zt7Blzzb5nep6zJcaZXL3durQamVV90apRG4WnystZrVAmPHOCXKNFPtp
OzGIL/h0wSJiHxKIhbIFq0hf2SrhnmXUcsA+7iTjJphI4Zru0vA3uR0beZYuSeUb
DCz/yuh4hdp0NProknjs0iREeLZwAx2ZOC0ME/8x6bomqQWP8OuAuS3DPv6ruKq/
uUDekexY8Ytwozqe11qNYclybmhkkvQ6BQB4AUA7pAhyOyHx3T0WWdKeOUQgi25x
fYCIZA+HTMYVh0CIflzGX4tatQ==
-----END CERTIFICATE-----
